target datalayout = "e-m:e-p270:32:32-p271:32:32-p272:64:64-i64:64-i128:128-f80:128-n8:16:32:64-S128"
target triple = "x86_64-pc-linux-gnu"

%struct._object = type { %union.anon, ptr }
%union.anon = type { i64 }
%struct.PyVarObject = type { %struct._object, i64 }
%struct.PyListObject = type { %struct.PyVarObject, ptr, i64 }
%struct.PyDictObject = type { %struct._object, i64, i64, ptr, ptr }

; Function Attrs: nounwind uwtable
define internal void @ensure_shared_on_resize(ptr noundef %0) #0 {
  %2 = alloca ptr, align 8
  store ptr %0, ptr %2, align 8, !tbaa !27
  ret void
}

; Function Attrs: inlinehint nounwind uwtable
define internal void @Py_SET_SIZE(ptr noundef %0, i64 noundef %1) #2 {
  %3 = alloca ptr, align 8
  %4 = alloca i64, align 8
  store ptr %0, ptr %3, align 8, !tbaa !27
  store i64 %1, ptr %4, align 8, !tbaa !26
  %5 = load i64, ptr %4, align 8, !tbaa !26
  %6 = load ptr, ptr %3, align 8, !tbaa !27
  %7 = getelementptr inbounds nuw %struct.PyVarObject, ptr %6, i32 0, i32 1
  store i64 %5, ptr %7, align 8, !tbaa !38
  ret void
}

; Function Attrs: nounwind uwtable
define internal i32 @list_resize(ptr noundef %0, i64 noundef %1) #0 {
  %3 = alloca i32, align 4
  %4 = alloca ptr, align 8
  %5 = alloca i64, align 8
  %6 = alloca i64, align 8
  %7 = alloca i64, align 8
  %8 = alloca i64, align 8
  %9 = alloca i32, align 4
  %10 = alloca ptr, align 8
  store ptr %0, ptr %4, align 8, !tbaa !27
  store i64 %1, ptr %5, align 8, !tbaa !26
  call void @llvm.lifetime.start.p0(i64 8, ptr %6) #8
  call void @llvm.lifetime.start.p0(i64 8, ptr %7) #8
  call void @llvm.lifetime.start.p0(i64 8, ptr %8) #8
  %11 = load ptr, ptr %4, align 8, !tbaa !27
  %12 = getelementptr inbounds nuw %struct.PyListObject, ptr %11, i32 0, i32 2
  %13 = load i64, ptr %12, align 8, !tbaa !33
  store i64 %13, ptr %8, align 8, !tbaa !26
  %14 = load i64, ptr %8, align 8, !tbaa !26
  %15 = load i64, ptr %5, align 8, !tbaa !26
  %16 = icmp sge i64 %14, %15
  br i1 %16, label %17, label %25

17:                                               ; preds = %2
  %18 = load i64, ptr %5, align 8, !tbaa !26
  %19 = load i64, ptr %8, align 8, !tbaa !26
  %20 = ashr i64 %19, 1
  %21 = icmp sge i64 %18, %20
  br i1 %21, label %22, label %25

22:                                               ; preds = %17
  %23 = load ptr, ptr %4, align 8, !tbaa !27
  %24 = load i64, ptr %5, align 8, !tbaa !26
  call void @Py_SET_SIZE(ptr noundef %23, i64 noundef %24)
  store i32 0, ptr %3, align 4
  store i32 1, ptr %9, align 4
  br label %76

25:                                               ; preds = %17, %2
  %26 = load i64, ptr %5, align 8, !tbaa !26
  %27 = load i64, ptr %5, align 8, !tbaa !26
  %28 = ashr i64 %27, 3
  %29 = add i64 %26, %28
  %30 = add i64 %29, 6
  %31 = and i64 %30, -4
  store i64 %31, ptr %6, align 8, !tbaa !26
  %32 = load i64, ptr %5, align 8, !tbaa !26
  %33 = load ptr, ptr %4, align 8, !tbaa !27
  %34 = call i64 @Py_SIZE(ptr noundef %33)
  %35 = sub i64 %32, %34
  %36 = load i64, ptr %6, align 8, !tbaa !26
  %37 = load i64, ptr %5, align 8, !tbaa !26
  %38 = sub i64 %36, %37
  %39 = icmp sgt i64 %35, %38
  br i1 %39, label %40, label %44

40:                                               ; preds = %25
  %41 = load i64, ptr %5, align 8, !tbaa !26
  %42 = add i64 %41, 3
  %43 = and i64 %42, -4
  store i64 %43, ptr %6, align 8, !tbaa !26
  br label %44

44:                                               ; preds = %40, %25
  %45 = load i64, ptr %5, align 8, !tbaa !26
  %46 = icmp eq i64 %45, 0
  br i1 %46, label %47, label %48

47:                                               ; preds = %44
  store i64 0, ptr %6, align 8, !tbaa !26
  br label %48

48:                                               ; preds = %47, %44
  %49 = load ptr, ptr %4, align 8, !tbaa !27
  call void @ensure_shared_on_resize(ptr noundef %49)
  call void @llvm.lifetime.start.p0(i64 8, ptr %10) #8
  %50 = load i64, ptr %6, align 8, !tbaa !26
  %51 = icmp ule i64 %50, 1152921504606846975
  br i1 %51, label %52, label %60

52:                                               ; preds = %48
  %53 = load i64, ptr %6, align 8, !tbaa !26
  %54 = mul i64 %53, 8
  store i64 %54, ptr %7, align 8, !tbaa !26
  %55 = load ptr, ptr %4, align 8, !tbaa !27
  %56 = getelementptr inbounds nuw %struct.PyListObject, ptr %55, i32 0, i32 1
  %57 = load ptr, ptr %56, align 8, !tbaa !28
  %58 = load i64, ptr %7, align 8, !tbaa !26
  %59 = call ptr @PyMem_Realloc(ptr noundef %57, i64 noundef %58)
  store ptr %59, ptr %10, align 8, !tbaa !119
  br label %61

60:                                               ; preds = %48
  store ptr null, ptr %10, align 8, !tbaa !119
  br label %61

61:                                               ; preds = %60, %52
  %62 = load ptr, ptr %10, align 8, !tbaa !119
  %63 = icmp eq ptr %62, null
  br i1 %63, label %64, label %66

64:                                               ; preds = %61
  %65 = call ptr @PyErr_NoMemory()
  store i32 -1, ptr %3, align 4
  store i32 1, ptr %9, align 4
  br label %75

66:                                               ; preds = %61
  %67 = load ptr, ptr %10, align 8, !tbaa !119
  %68 = load ptr, ptr %4, align 8, !tbaa !27
  %69 = getelementptr inbounds nuw %struct.PyListObject, ptr %68, i32 0, i32 1
  store ptr %67, ptr %69, align 8, !tbaa !28
  %70 = load ptr, ptr %4, align 8, !tbaa !27
  %71 = load i64, ptr %5, align 8, !tbaa !26
  call void @Py_SET_SIZE(ptr noundef %70, i64 noundef %71)
  %72 = load i64, ptr %6, align 8, !tbaa !26
  %73 = load ptr, ptr %4, align 8, !tbaa !27
  %74 = getelementptr inbounds nuw %struct.PyListObject, ptr %73, i32 0, i32 2
  store i64 %72, ptr %74, align 8, !tbaa !33
  store i32 0, ptr %3, align 4
  store i32 1, ptr %9, align 4
  br label %75

75:                                               ; preds = %66, %64
  call void @llvm.lifetime.end.p0(i64 8, ptr %10) #8
  br label %76

76:                                               ; preds = %75, %22
  call void @llvm.lifetime.end.p0(i64 8, ptr %8) #8
  call void @llvm.lifetime.end.p0(i64 8, ptr %7) #8
  call void @llvm.lifetime.end.p0(i64 8, ptr %6) #8
  %77 = load i32, ptr %3, align 4
  ret i32 %77
}

; Function Attrs: inlinehint nounwind uwtable
define internal i64 @PyDict_GET_SIZE(ptr noundef %0) #2 {
  %2 = alloca ptr, align 8
  %3 = alloca ptr, align 8
  store ptr %0, ptr %2, align 8, !tbaa !36
  call void @llvm.lifetime.start.p0(i64 8, ptr %3) #8
  %4 = load ptr, ptr %2, align 8, !tbaa !36
  store ptr %4, ptr %3, align 8, !tbaa !27
  %5 = load ptr, ptr %3, align 8, !tbaa !27
  %6 = getelementptr inbounds nuw %struct.PyDictObject, ptr %5, i32 0, i32 1
  %7 = load i64, ptr %6, align 8, !tbaa !173
  call void @llvm.lifetime.end.p0(i64 8, ptr %3) #8
  ret i64 %7
}

; Function Attrs: inlinehint nounwind uwtable
define internal i64 @Py_SIZE(ptr noundef %0) #2 {
  %2 = alloca ptr, align 8
  store ptr %0, ptr %2, align 8, !tbaa !36
  %3 = load ptr, ptr %2, align 8, !tbaa !36
  %4 = getelementptr inbounds nuw %struct.PyVarObject, ptr %3, i32 0, i32 1
  %5 = load i64, ptr %4, align 8, !tbaa !38
  ret i64 %5
}

; Function Attrs: nounwind uwtable
define internal i32 @list_extend_dictitems(ptr noundef %0, ptr noundef %1) #0 {
  %3 = alloca i32, align 4
  %4 = alloca ptr, align 8
  %5 = alloca ptr, align 8
  %6 = alloca i64, align 8
  %7 = alloca i64, align 8
  %8 = alloca i32, align 4
  %9 = alloca ptr, align 8
  %10 = alloca i64, align 8
  %11 = alloca i64, align 8
  %12 = alloca ptr, align 8
  %13 = alloca ptr, align 8
  %14 = alloca ptr, align 8
  store ptr %0, ptr %4, align 8, !tbaa !27
  store ptr %1, ptr %5, align 8, !tbaa !27
  call void @llvm.lifetime.start.p0(i64 8, ptr %6) #8
  %15 = load ptr, ptr %4, align 8, !tbaa !27
  %16 = call i64 @Py_SIZE(ptr noundef %15)
  store i64 %16, ptr %6, align 8, !tbaa !26
  call void @llvm.lifetime.start.p0(i64 8, ptr %7) #8
  %17 = load ptr, ptr %5, align 8, !tbaa !27
  %18 = call i64 @PyDict_GET_SIZE(ptr noundef %17)
  store i64 %18, ptr %7, align 8, !tbaa !26
  %19 = load ptr, ptr %4, align 8, !tbaa !27
  %20 = load i64, ptr %6, align 8, !tbaa !26
  %21 = load i64, ptr %7, align 8, !tbaa !26
  %22 = add i64 %20, %21
  %23 = call i32 @list_resize(ptr noundef %19, i64 noundef %22)
  %24 = icmp slt i32 %23, 0
  br i1 %24, label %25, label %26

25:                                               ; preds = %2
  store i32 -1, ptr %3, align 4
  store i32 1, ptr %8, align 4
  br label %63

26:                                               ; preds = %2
  call void @llvm.lifetime.start.p0(i64 8, ptr %9) #8
  %27 = load ptr, ptr %4, align 8, !tbaa !27
  %28 = getelementptr inbounds nuw %struct.PyListObject, ptr %27, i32 0, i32 1
  %29 = load ptr, ptr %28, align 8, !tbaa !28
  %30 = load i64, ptr %6, align 8, !tbaa !26
  %31 = getelementptr ptr, ptr %29, i64 %30
  store ptr %31, ptr %9, align 8, !tbaa !119
  call void @llvm.lifetime.start.p0(i64 8, ptr %10) #8
  store i64 0, ptr %10, align 8, !tbaa !26
  call void @llvm.lifetime.start.p0(i64 8, ptr %11) #8
  store i64 0, ptr %11, align 8, !tbaa !26
  call void @llvm.lifetime.start.p0(i64 8, ptr %12) #8
  call void @llvm.lifetime.start.p0(i64 8, ptr %13) #8
  br label %32

32:                                               ; preds = %56, %26
  %33 = load ptr, ptr %5, align 8, !tbaa !27
  %34 = call i32 @_PyDict_Next(ptr noundef %33, ptr noundef %10, ptr noundef %12, ptr noundef %13, ptr noundef null)
  %35 = icmp ne i32 %34, 0
  br i1 %35, label %36, label %57

36:                                               ; preds = %32
  call void @llvm.lifetime.start.p0(i64 8, ptr %14) #8
  %37 = load ptr, ptr %12, align 8, !tbaa !36
  %38 = load ptr, ptr %13, align 8, !tbaa !36
  %39 = call ptr (i64, ...) @PyTuple_Pack(i64 noundef 2, ptr noundef %37, ptr noundef %38)
  store ptr %39, ptr %14, align 8, !tbaa !36
  %40 = load ptr, ptr %14, align 8, !tbaa !36
  %41 = icmp eq ptr %40, null
  br i1 %41, label %42, label %47

42:                                               ; preds = %36
  %43 = load ptr, ptr %4, align 8, !tbaa !27
  %44 = load i64, ptr %6, align 8, !tbaa !26
  %45 = load i64, ptr %11, align 8, !tbaa !26
  %46 = add i64 %44, %45
  call void @Py_SET_SIZE(ptr noundef %43, i64 noundef %46)
  store i32 -1, ptr %3, align 4
  store i32 1, ptr %8, align 4
  br label %54

47:                                               ; preds = %36
  %48 = load ptr, ptr %14, align 8, !tbaa !36
  %49 = load ptr, ptr %9, align 8, !tbaa !119
  store ptr %48, ptr %49, align 8, !tbaa !36
  %50 = load ptr, ptr %9, align 8, !tbaa !119
  %51 = getelementptr ptr, ptr %50, i32 1
  store ptr %51, ptr %9, align 8, !tbaa !119
  %52 = load i64, ptr %11, align 8, !tbaa !26
  %53 = add i64 %52, 1
  store i64 %53, ptr %11, align 8, !tbaa !26
  store i32 0, ptr %8, align 4
  br label %54

54:                                               ; preds = %47, %42
  call void @llvm.lifetime.end.p0(i64 8, ptr %14) #8
  %55 = load i32, ptr %8, align 4
  switch i32 %55, label %62 [
    i32 0, label %56
  ]

56:                                               ; preds = %54
  br label %32, !llvm.loop !167

57:                                               ; preds = %32
  %58 = load ptr, ptr %4, align 8, !tbaa !27
  %59 = load i64, ptr %6, align 8, !tbaa !26
  %60 = load i64, ptr %7, align 8, !tbaa !26
  %61 = add i64 %59, %60
  call void @Py_SET_SIZE(ptr noundef %58, i64 noundef %61)
  store i32 0, ptr %3, align 4
  store i32 1, ptr %8, align 4
  br label %62

62:                                               ; preds = %57, %54
  call void @llvm.lifetime.end.p0(i64 8, ptr %13) #8
  call void @llvm.lifetime.end.p0(i64 8, ptr %12) #8
  call void @llvm.lifetime.end.p0(i64 8, ptr %11) #8
  call void @llvm.lifetime.end.p0(i64 8, ptr %10) #8
  call void @llvm.lifetime.end.p0(i64 8, ptr %9) #8
  br label %63

63:                                               ; preds = %62, %25
  call void @llvm.lifetime.end.p0(i64 8, ptr %7) #8
  call void @llvm.lifetime.end.p0(i64 8, ptr %6) #8
  %64 = load i32, ptr %3, align 4
  ret i32 %64
}