; Function Attrs: nounwind uwtable
define internal fastcc range(i32 -1, 1) i32 @list_extend_dictitems(ptr noundef captures(none) %0, ptr noundef %1) unnamed_addr #0 {
  %3 = alloca i64, align 8
  %4 = alloca ptr, align 8
  %5 = alloca ptr, align 8
  %6 = getelementptr i8, ptr %0, i64 16
  %.val = load i64, ptr %6, align 8, !tbaa !33
  %7 = getelementptr i8, ptr %1, i64 16
  %.val27 = load i64, ptr %7, align 8, !tbaa !178
  %8 = add i64 %.val27, %.val
  %9 = getelementptr inbounds nuw i8, ptr %0, i64 32
  %10 = load i64, ptr %9, align 8, !tbaa !34
  %.not.i = icmp slt i64 %10, %8
  %11 = ashr i64 %10, 1
  %.not32.i = icmp slt i64 %8, %11
  %or.cond.i = or i1 %.not.i, %.not32.i
  br i1 %or.cond.i, label %13, label %12

12:                                               ; preds = %2
  store i64 %8, ptr %6, align 8, !tbaa !33
  %.phi.trans.insert = getelementptr inbounds nuw i8, ptr %0, i64 24
  %.pre = load ptr, ptr %.phi.trans.insert, align 8, !tbaa !27
  br label %32

13:                                               ; preds = %2
  %14 = ashr i64 %8, 3
  %15 = add i64 %8, 6
  %16 = add i64 %15, %14
  %17 = and i64 %16, -4
  %18 = sub i64 %17, %8
  %19 = icmp sgt i64 %.val27, %18
  %20 = add i64 %8, 3
  %21 = and i64 %20, -4
  %.028.i = select i1 %19, i64 %21, i64 %17
  %22 = icmp eq i64 %8, 0
  %.129.i = select i1 %22, i64 0, i64 %.028.i
  %23 = icmp ult i64 %.129.i, 1152921504606846976
  br i1 %23, label %24, label %list_resize.exit

24:                                               ; preds = %13
  %25 = shl nuw nsw i64 %.129.i, 3
  %26 = getelementptr inbounds nuw i8, ptr %0, i64 24
  %27 = load ptr, ptr %26, align 8, !tbaa !27
  %28 = tail call ptr @PyMem_Realloc(ptr noundef %27, i64 noundef %25) #12
  %29 = icmp eq ptr %28, null
  br i1 %29, label %list_resize.exit, label %30

30:                                               ; preds = %24
  store ptr %28, ptr %26, align 8, !tbaa !27
  store i64 %8, ptr %6, align 8, !tbaa !33
  store i64 %.129.i, ptr %9, align 8, !tbaa !34
  br label %32

list_resize.exit:                                 ; preds = %13, %24
  %31 = tail call ptr @PyErr_NoMemory() #12
  br label %44

32:                                               ; preds = %12, %30
  %33 = phi ptr [ %.pre, %12 ], [ %28, %30 ]
  call void @llvm.lifetime.start.p0(i64 8, ptr nonnull %3) #12
  store i64 0, ptr %3, align 8, !tbaa !118
  call void @llvm.lifetime.start.p0(i64 8, ptr nonnull %4) #12
  call void @llvm.lifetime.start.p0(i64 8, ptr nonnull %5) #12
  %34 = call i32 @_PyDict_Next(ptr noundef nonnull %1, ptr noundef nonnull %3, ptr noundef nonnull %4, ptr noundef nonnull %5, ptr noundef null) #12
  %.not32 = icmp eq i32 %34, 0
  br i1 %.not32, label %.loopexit, label %.lr.ph.preheader

.lr.ph.preheader:                                 ; preds = %32
  %35 = getelementptr ptr, ptr %33, i64 %.val
  br label %.lr.ph

.lr.ph:                                           ; preds = %.lr.ph.preheader, %40
  %.02034 = phi i64 [ %42, %40 ], [ 0, %.lr.ph.preheader ]
  %.02233 = phi ptr [ %41, %40 ], [ %35, %.lr.ph.preheader ]
  %36 = load ptr, ptr %4, align 8, !tbaa !112
  %37 = load ptr, ptr %5, align 8, !tbaa !112
  %38 = call ptr (i64, ...) @PyTuple_Pack(i64 noundef 2, ptr noundef %36, ptr noundef %37) #12
  %.not26 = icmp eq ptr %38, null
  br i1 %.not26, label %.thread, label %40

.thread:                                          ; preds = %.lr.ph
  %39 = add i64 %.02034, %.val
  br label %.loopexit

40:                                               ; preds = %.lr.ph
  store ptr %38, ptr %.02233, align 8, !tbaa !112
  %41 = getelementptr i8, ptr %.02233, i64 8
  %42 = add i64 %.02034, 1
  %43 = call i32 @_PyDict_Next(ptr noundef nonnull %1, ptr noundef nonnull %3, ptr noundef nonnull %4, ptr noundef nonnull %5, ptr noundef null) #12
  %.not = icmp eq i32 %43, 0
  br i1 %.not, label %.loopexit, label %.lr.ph, !llvm.loop !183

.loopexit:                                        ; preds = %40, %32, %.thread
  %storemerge = phi i64 [ %39, %.thread ], [ %8, %32 ], [ %8, %40 ]
  %.3 = phi i32 [ -1, %.thread ], [ 0, %32 ], [ 0, %40 ]
  store i64 %storemerge, ptr %6, align 8, !tbaa !33
  call void @llvm.lifetime.end.p0(i64 8, ptr nonnull %5) #12
  call void @llvm.lifetime.end.p0(i64 8, ptr nonnull %4) #12
  call void @llvm.lifetime.end.p0(i64 8, ptr nonnull %3) #12
  br label %44

44:                                               ; preds = %list_resize.exit, %.loopexit
  %.0 = phi i32 [ %.3, %.loopexit ], [ -1, %list_resize.exit ]
  ret i32 %.0
}